target datalayout = "e-m:e-p270:32:32-p271:32:32-p272:64:64-i64:64-i128:128-f80:128-n8:16:32:64-S128"
target triple = "x86_64-pc-linux-gnu"

%"class.pybind11::object" = type { %"class.pybind11::handle" }
%"class.pybind11::handle" = type { ptr }
%"class.pybind11::class_" = type { %"class.pybind11::detail::generic_type" }
%"class.pybind11::detail::generic_type" = type { %"class.pybind11::object" }

@.str.1 = private unnamed_addr constant [12 x i8] c"VectorOwner\00", align 1
@.str.2 = private unnamed_addr constant [7 x i8] c"Create\00", align 1
@.str.3 = private unnamed_addr constant [10 x i8] c"data_size\00", align 1
@.str.4 = private unnamed_addr constant [24 x i8] c"py_cast_VectorOwner_ptr\00", align 1

; Function Attrs: mustprogress uwtable
define hidden void @_Z39test_submodule_vector_unique_ptr_memberRN8pybind117module_E(ptr noundef nonnull align 8 dereferenceable(8) %0) #1 personality ptr @__gxx_personality_v0 {
  %2 = alloca ptr, align 8
  %3 = alloca %"class.pybind11::class_", align 8
  %4 = alloca %"class.pybind11::handle", align 8
  %5 = alloca ptr, align 8
  %6 = alloca ptr, align 8
  %7 = alloca i32, align 4
  %8 = alloca { i64, i64 }, align 8
  store ptr %0, ptr %2, align 8
  %9 = load ptr, ptr %2, align 8
  call void @llvm.memcpy.p0.p0.i64(ptr align 8 %4, ptr align 8 %9, i64 8, i1 false)
  %10 = getelementptr inbounds %"class.pybind11::handle", ptr %4, i32 0, i32 0
  %11 = load ptr, ptr %10, align 8
  call void @_ZN8pybind116class_IN14pybind11_tests24vector_unique_ptr_member11VectorOwnerEJEEC2IJEEENS_6handleEPKcDpRKT_(ptr noundef nonnull align 8 dereferenceable(8) %3, ptr %11, ptr noundef @.str.1)
  store ptr @_ZN14pybind11_tests24vector_unique_ptr_member11VectorOwner6CreateEm, ptr %5, align 8
  %12 = invoke noundef nonnull align 8 dereferenceable(8) ptr @_ZN8pybind116class_IN14pybind11_tests24vector_unique_ptr_member11VectorOwnerEJEE10def_staticIPFSt10unique_ptrIS3_St14default_deleteIS3_EEmEJEEERS4_PKcOT_DpRKT0_(ptr noundef nonnull align 8 dereferenceable(8) %3, ptr noundef @.str.2, ptr noundef nonnull align 8 dereferenceable(8) %5)
          to label %13 unwind label %18

13:                                               ; preds = %1
  store { i64, i64 } { i64 ptrtoint (ptr @_ZNK14pybind11_tests24vector_unique_ptr_member11VectorOwner9data_sizeEv to i64), i64 0 }, ptr %8, align 8
  %14 = invoke noundef nonnull align 8 dereferenceable(8) ptr @_ZN8pybind116class_IN14pybind11_tests24vector_unique_ptr_member11VectorOwnerEJEE3defIMS3_KFmvEJEEERS4_PKcOT_DpRKT0_(ptr noundef nonnull align 8 dereferenceable(8) %12, ptr noundef @.str.3, ptr noundef nonnull align 8 dereferenceable(16) %8)
          to label %15 unwind label %18

15:                                               ; preds = %13
  call void @_ZN8pybind116class_IN14pybind11_tests24vector_unique_ptr_member11VectorOwnerEJEED2Ev(ptr noundef nonnull align 8 dereferenceable(8) %3) #16
  %16 = load ptr, ptr %2, align 8
  %17 = call noundef nonnull align 8 dereferenceable(8) ptr @_ZN8pybind117module_3defIRFNS_6objectEPN14pybind11_tests24vector_unique_ptr_member11VectorOwnerEEJEEERS0_PKcOT_DpRKT0_(ptr noundef nonnull align 8 dereferenceable(8) %16, ptr noundef @.str.4, ptr noundef nonnull @_Z23py_cast_VectorOwner_ptrPN14pybind11_tests24vector_unique_ptr_member11VectorOwnerE)
  ret void

18:                                               ; preds = %13, %1
  %19 = landingpad { ptr, i32 }
          cleanup
  %20 = extractvalue { ptr, i32 } %19, 0
  store ptr %20, ptr %6, align 8
  %21 = extractvalue { ptr, i32 } %19, 1
  store i32 %21, ptr %7, align 4
  call void @_ZN8pybind116class_IN14pybind11_tests24vector_unique_ptr_member11VectorOwnerEJEED2Ev(ptr noundef nonnull align 8 dereferenceable(8) %3) #16
  br label %22

22:                                               ; preds = %18
  %23 = load ptr, ptr %6, align 8
  %24 = load i32, ptr %7, align 4
  %25 = insertvalue { ptr, i32 } poison, ptr %23, 0
  %26 = insertvalue { ptr, i32 } %25, i32 %24, 1
  resume { ptr, i32 } %26
}