; Function Attrs: mustprogress uwtable
define hidden void @_Z39test_submodule_vector_unique_ptr_memberRN8pybind117module_E(ptr noundef nonnull align 8 dereferenceable(8) %0) #1 personality ptr @__gxx_personality_v0 {
  %2 = alloca %"class.pybind11::class_", align 8
  %3 = alloca ptr, align 8
  %4 = alloca { i64, i64 }, align 8
  %.sroa.0.0.copyload = load ptr, ptr %0, align 8
  call void @_ZN8pybind116class_IN14pybind11_tests24vector_unique_ptr_member11VectorOwnerEJEEC2IJEEENS_6handleEPKcDpRKT_(ptr noundef nonnull align 8 dereferenceable(8) %2, ptr %.sroa.0.0.copyload, ptr noundef nonnull @.str.1)
  store ptr @_ZN14pybind11_tests24vector_unique_ptr_member11VectorOwner6CreateEm, ptr %3, align 8
  %5 = invoke noundef nonnull align 8 dereferenceable(8) ptr @_ZN8pybind116class_IN14pybind11_tests24vector_unique_ptr_member11VectorOwnerEJEE10def_staticIPFSt10unique_ptrIS3_St14default_deleteIS3_EEmEJEEERS4_PKcOT_DpRKT0_(ptr noundef nonnull align 8 dereferenceable(8) %2, ptr noundef nonnull @.str.2, ptr noundef nonnull align 8 dereferenceable(8) %3)
          to label %6 unwind label %18

6:                                                ; preds = %1
  store i64 ptrtoint (ptr @_ZNK14pybind11_tests24vector_unique_ptr_member11VectorOwner9data_sizeEv to i64), ptr %4, align 8
  %.fca.1.gep = getelementptr inbounds i8, ptr %4, i64 8
  store i64 0, ptr %.fca.1.gep, align 8
  %7 = invoke noundef nonnull align 8 dereferenceable(8) ptr @_ZN8pybind116class_IN14pybind11_tests24vector_unique_ptr_member11VectorOwnerEJEE3defIMS3_KFmvEJEEERS4_PKcOT_DpRKT0_(ptr noundef nonnull align 8 dereferenceable(8) %5, ptr noundef nonnull @.str.3, ptr noundef nonnull align 8 dereferenceable(16) %4)
          to label %8 unwind label %18

8:                                                ; preds = %6
  %9 = load ptr, ptr %2, align 8
  %.not.i.i.i.i.i = icmp eq ptr %9, null
  br i1 %.not.i.i.i.i.i, label %_ZN8pybind116class_IN14pybind11_tests24vector_unique_ptr_member11VectorOwnerEJEED2Ev.exit, label %10

10:                                               ; preds = %8
  %11 = load i64, ptr %9, align 8
  %12 = add nsw i64 %11, -1
  store i64 %12, ptr %9, align 8
  %.not.i.i.i.i.i.i = icmp eq i64 %12, 0
  br i1 %.not.i.i.i.i.i.i, label %13, label %_ZN8pybind116class_IN14pybind11_tests24vector_unique_ptr_member11VectorOwnerEJEED2Ev.exit

13:                                               ; preds = %10
  invoke void @_Py_Dealloc(ptr noundef nonnull %9)
          to label %_ZN8pybind116class_IN14pybind11_tests24vector_unique_ptr_member11VectorOwnerEJEED2Ev.exit unwind label %14

14:                                               ; preds = %13
  %15 = landingpad { ptr, i32 }
          catch ptr null
  %16 = extractvalue { ptr, i32 } %15, 0
  call void @__clang_call_terminate(ptr %16) #24
  unreachable

_ZN8pybind116class_IN14pybind11_tests24vector_unique_ptr_member11VectorOwnerEJEED2Ev.exit: ; preds = %8, %10, %13
  %17 = call noundef nonnull align 8 dereferenceable(8) ptr @_ZN8pybind117module_3defIRFNS_6objectEPN14pybind11_tests24vector_unique_ptr_member11VectorOwnerEEJEEERS0_PKcOT_DpRKT0_(ptr noundef nonnull align 8 dereferenceable(8) %0, ptr noundef nonnull @.str.4, ptr noundef nonnull @_Z23py_cast_VectorOwner_ptrPN14pybind11_tests24vector_unique_ptr_member11VectorOwnerE)
  ret void

18:                                               ; preds = %6, %1
  %19 = landingpad { ptr, i32 }
          cleanup
  call void @_ZN8pybind116class_IN14pybind11_tests24vector_unique_ptr_member11VectorOwnerEJEED2Ev(ptr noundef nonnull align 8 dereferenceable(8) %2) #23
  resume { ptr, i32 } %19
}